; ModuleID = '31/139.c'
source_filename = "31/139.c"
target datalayout = "e-m:e-p270:32:32-p271:32:32-p272:64:64-i64:64-f80:128-n8:16:32:64-S128"
target triple = "x86_64-pc-linux-gnu"

%struct.stu = type { [10 x i8], [20 x i8], i8, i32, float, [20 x i8], %struct.list* }
%struct.list = type opaque

@.str = private unnamed_addr constant [3 x i8] c"%s\00", align 1
@.str.1 = private unnamed_addr constant [16 x i8] c"%s %c %d %f %s\0A\00", align 1
@.str.2 = private unnamed_addr constant [19 x i8] c"%s %s %c %d %g %s\0A\00", align 1

; Function Attrs: noinline nounwind uwtable
define dso_local %struct.stu* @creat() #0 {
  %1 = alloca %struct.stu*, align 8
  %2 = alloca %struct.stu*, align 8
  %3 = alloca %struct.stu*, align 8
  %4 = alloca i32, align 4
  store %struct.stu* null, %struct.stu** %1, align 8
  store %struct.stu* null, %struct.stu** %2, align 8
  store i32 0, i32* %4, align 4
  br label %5

5:                                                ; preds = %51, %0
  %6 = load %struct.stu*, %struct.stu** %1, align 8
  store %struct.stu* %6, %struct.stu** %2, align 8
  %7 = call noalias i8* @malloc(i64 72) #3
  %8 = bitcast i8* %7 to %struct.stu*
  store %struct.stu* %8, %struct.stu** %1, align 8
  %9 = load %struct.stu*, %struct.stu** %1, align 8
  %10 = getelementptr inbounds %struct.stu, %struct.stu* %9, i32 0, i32 0
  %11 = getelementptr inbounds [10 x i8], [10 x i8]* %10, i64 0, i64 0
  %12 = call i32 (i8*, ...) @__isoc99_scanf(i8* getelementptr inbounds ([3 x i8], [3 x i8]* @.str, i64 0, i64 0), i8* %11)
  %13 = load %struct.stu*, %struct.stu** %1, align 8
  %14 = getelementptr inbounds %struct.stu, %struct.stu* %13, i32 0, i32 0
  %15 = getelementptr inbounds [10 x i8], [10 x i8]* %14, i64 0, i64 0
  %16 = load i8, i8* %15, align 8
  %17 = sext i8 %16 to i32
  %18 = icmp eq i32 %17, 101
  br i1 %18, label %19, label %23

19:                                               ; preds = %5
  %20 = load %struct.stu*, %struct.stu** %2, align 8
  store %struct.stu* %20, %struct.stu** %3, align 8
  %21 = load %struct.stu*, %struct.stu** %1, align 8
  %22 = bitcast %struct.stu* %21 to i8*
  call void @free(i8* %22) #3
  br label %52

23:                                               ; preds = %5
  %24 = load %struct.stu*, %struct.stu** %1, align 8
  %25 = getelementptr inbounds %struct.stu, %struct.stu* %24, i32 0, i32 1
  %26 = getelementptr inbounds [20 x i8], [20 x i8]* %25, i64 0, i64 0
  %27 = load %struct.stu*, %struct.stu** %1, align 8
  %28 = getelementptr inbounds %struct.stu, %struct.stu* %27, i32 0, i32 2
  %29 = load %struct.stu*, %struct.stu** %1, align 8
  %30 = getelementptr inbounds %struct.stu, %struct.stu* %29, i32 0, i32 3
  %31 = load %struct.stu*, %struct.stu** %1, align 8
  %32 = getelementptr inbounds %struct.stu, %struct.stu* %31, i32 0, i32 4
  %33 = load %struct.stu*, %struct.stu** %1, align 8
  %34 = getelementptr inbounds %struct.stu, %struct.stu* %33, i32 0, i32 5
  %35 = getelementptr inbounds [20 x i8], [20 x i8]* %34, i64 0, i64 0
  %36 = call i32 (i8*, ...) @__isoc99_scanf(i8* getelementptr inbounds ([16 x i8], [16 x i8]* @.str.1, i64 0, i64 0), i8* %26, i8* %28, i32* %30, float* %32, i8* %35)
  %37 = load i32, i32* %4, align 4
  %38 = icmp eq i32 %37, 0
  br i1 %38, label %39, label %42

39:                                               ; preds = %23
  %40 = load %struct.stu*, %struct.stu** %1, align 8
  %41 = getelementptr inbounds %struct.stu, %struct.stu* %40, i32 0, i32 6
  store %struct.list* null, %struct.list** %41, align 8
  br label %42

42:                                               ; preds = %39, %23
  %43 = load i32, i32* %4, align 4
  %44 = icmp ne i32 %43, 0
  br i1 %44, label %45, label %50

45:                                               ; preds = %42
  %46 = load %struct.stu*, %struct.stu** %2, align 8
  %47 = bitcast %struct.stu* %46 to %struct.list*
  %48 = load %struct.stu*, %struct.stu** %1, align 8
  %49 = getelementptr inbounds %struct.stu, %struct.stu* %48, i32 0, i32 6
  store %struct.list* %47, %struct.list** %49, align 8
  br label %50

50:                                               ; preds = %45, %42
  store i32 1, i32* %4, align 4
  br label %51

51:                                               ; preds = %50
  br i1 true, label %5, label %52

52:                                               ; preds = %51, %19
  %53 = load %struct.stu*, %struct.stu** %3, align 8
  ret %struct.stu* %53
}

; Function Attrs: nounwind
declare dso_local noalias i8* @malloc(i64) #1

declare dso_local i32 @__isoc99_scanf(i8*, ...) #2

; Function Attrs: nounwind
declare dso_local void @free(i8*) #1

; Function Attrs: noinline nounwind uwtable
define dso_local void @print(%struct.stu* %0) #0 {
  %2 = alloca %struct.stu*, align 8
  %3 = alloca %struct.stu*, align 8
  store %struct.stu* %0, %struct.stu** %2, align 8
  %4 = load %struct.stu*, %struct.stu** %2, align 8
  store %struct.stu* %4, %struct.stu** %3, align 8
  br label %5

5:                                                ; preds = %8, %1
  %6 = load %struct.stu*, %struct.stu** %3, align 8
  %7 = icmp ne %struct.stu* %6, null
  br i1 %7, label %8, label %34

8:                                                ; preds = %5
  %9 = load %struct.stu*, %struct.stu** %3, align 8
  %10 = getelementptr inbounds %struct.stu, %struct.stu* %9, i32 0, i32 0
  %11 = getelementptr inbounds [10 x i8], [10 x i8]* %10, i64 0, i64 0
  %12 = load %struct.stu*, %struct.stu** %3, align 8
  %13 = getelementptr inbounds %struct.stu, %struct.stu* %12, i32 0, i32 1
  %14 = getelementptr inbounds [20 x i8], [20 x i8]* %13, i64 0, i64 0
  %15 = load %struct.stu*, %struct.stu** %3, align 8
  %16 = getelementptr inbounds %struct.stu, %struct.stu* %15, i32 0, i32 2
  %17 = load i8, i8* %16, align 2
  %18 = sext i8 %17 to i32
  %19 = load %struct.stu*, %struct.stu** %3, align 8
  %20 = getelementptr inbounds %struct.stu, %struct.stu* %19, i32 0, i32 3
  %21 = load i32, i32* %20, align 8
  %22 = load %struct.stu*, %struct.stu** %3, align 8
  %23 = getelementptr inbounds %struct.stu, %struct.stu* %22, i32 0, i32 4
  %24 = load float, float* %23, align 4
  %25 = fpext float %24 to double
  %26 = load %struct.stu*, %struct.stu** %3, align 8
  %27 = getelementptr inbounds %struct.stu, %struct.stu* %26, i32 0, i32 5
  %28 = getelementptr inbounds [20 x i8], [20 x i8]* %27, i64 0, i64 0
  %29 = call i32 (i8*, ...) @printf(i8* getelementptr inbounds ([19 x i8], [19 x i8]* @.str.2, i64 0, i64 0), i8* %11, i8* %14, i32 %18, i32 %21, double %25, i8* %28)
  %30 = load %struct.stu*, %struct.stu** %3, align 8
  %31 = getelementptr inbounds %struct.stu, %struct.stu* %30, i32 0, i32 6
  %32 = load %struct.list*, %struct.list** %31, align 8
  %33 = bitcast %struct.list* %32 to %struct.stu*
  store %struct.stu* %33, %struct.stu** %3, align 8
  br label %5

34:                                               ; preds = %5
  ret void
}

declare dso_local i32 @printf(i8*, ...) #2

; Function Attrs: noinline nounwind uwtable
define dso_local i32 @main() #0 {
  %1 = alloca i32, align 4
  %2 = alloca %struct.stu*, align 8
  store i32 0, i32* %1, align 4
  %3 = call %struct.stu* @creat()
  store %struct.stu* %3, %struct.stu** %2, align 8
  %4 = load %struct.stu*, %struct.stu** %2, align 8
  call void @print(%struct.stu* %4)
  ret i32 0
}


!llvm.module.flags = !{!0}
!llvm.ident = !{!1}

!0 = !{i32 1, !"wchar_size", i32 4}
!1 = !{!"clang version 10.0.0-4ubuntu1 "}
